target datalayout = "e-m:e-p270:32:32-p271:32:32-p272:64:64-i64:64-i128:128-f80:128-n8:16:32:64-S128"
target triple = "x86_64-pc-linux-gnu"

%struct.b2Vec2 = type { float, float }
%struct.Camera = type { %struct.b2Vec2, float, i32, i32 }

; Function Attrs: mustprogress nounwind uwtable
define dso_local void @_ZN6Camera9ResetViewEv(ptr noundef nonnull align 4 dereferenceable(20) %0) #3 align 2 {
  %2 = alloca ptr, align 8
  %3 = alloca %struct.b2Vec2, align 4
  store ptr %0, ptr %2, align 8, !tbaa !4
  %4 = load ptr, ptr %2, align 8
  call void @llvm.lifetime.start.p0(i64 8, ptr %3) #1
  %5 = getelementptr inbounds nuw %struct.b2Vec2, ptr %3, i32 0, i32 0
  store float 0.000000e+00, ptr %5, align 4, !tbaa !15
  %6 = getelementptr inbounds nuw %struct.b2Vec2, ptr %3, i32 0, i32 1
  store float 2.000000e+01, ptr %6, align 4, !tbaa !16
  %7 = getelementptr inbounds nuw %struct.Camera, ptr %4, i32 0, i32 0
  call void @llvm.memcpy.p0.p0.i64(ptr align 4 %7, ptr align 4 %3, i64 8, i1 false), !tbaa.struct !17
  call void @llvm.lifetime.end.p0(i64 8, ptr %3) #1
  %8 = getelementptr inbounds nuw %struct.Camera, ptr %4, i32 0, i32 1
  store float 1.000000e+00, ptr %8, align 4, !tbaa !19
  ret void
}

; Function Attrs: mustprogress uwtable
define dso_local void @_ZN6CameraC2Ev(ptr noundef nonnull align 4 dereferenceable(20) %0) unnamed_addr #2 align 2 {
  %2 = alloca ptr, align 8
  store ptr %0, ptr %2, align 8, !tbaa !4
  %3 = load ptr, ptr %2, align 8
  %4 = getelementptr inbounds nuw %struct.Camera, ptr %3, i32 0, i32 2
  store i32 1280, ptr %4, align 4, !tbaa !9
  %5 = getelementptr inbounds nuw %struct.Camera, ptr %3, i32 0, i32 3
  store i32 800, ptr %5, align 4, !tbaa !14
  call void @_ZN6Camera9ResetViewEv(ptr noundef nonnull align 4 dereferenceable(20) %3)
  ret void
}