; Function Attrs: mustprogress nofree norecurse nosync nounwind willreturn memory(argmem: write) uwtable
define dso_local void @_ZN6CameraC2Ev(ptr noundef nonnull writeonly align 4 captures(none) dereferenceable(20) initializes((0, 20)) %0) unnamed_addr #0 align 2 {
  %2 = getelementptr inbounds nuw i8, ptr %0, i64 12
  store i32 1280, ptr %2, align 4, !tbaa !4
  %3 = getelementptr inbounds nuw i8, ptr %0, i64 16
  store i32 800, ptr %3, align 4, !tbaa !11
  store float 0.000000e+00, ptr %0, align 4, !tbaa !12
  %.sroa.4.0..sroa_idx.i = getelementptr inbounds nuw i8, ptr %0, i64 4
  store float 2.000000e+01, ptr %.sroa.4.0..sroa_idx.i, align 4, !tbaa !12
  %4 = getelementptr inbounds nuw i8, ptr %0, i64 8
  store float 1.000000e+00, ptr %4, align 4, !tbaa !13
  ret void
}